target datalayout = "e-m:e-p270:32:32-p271:32:32-p272:64:64-i64:64-i128:128-f80:128-n8:16:32:64-S128"
target triple = "x86_64-pc-linux-gnu"

; Function Attrs: mustprogress nounwind uwtable
define hidden noundef zeroext i1 @_ZN4cvc58internal6theory11quantifiers8TermUtil15isAntisymmetricENS0_4kind6Kind_tERS5_(i32 noundef %0, ptr noundef nonnull align 4 dereferenceable(4) %1) #7 align 2 {
  %3 = alloca i1, align 1
  %4 = alloca i32, align 4
  %5 = alloca ptr, align 8
  store i32 %0, ptr %4, align 4, !tbaa !50
  store ptr %1, ptr %5, align 8, !tbaa !114
  %6 = load i32, ptr %4, align 4, !tbaa !50
  %7 = icmp eq i32 %6, 77
  br i1 %7, label %8, label %10

8:                                                ; preds = %2
  %9 = load ptr, ptr %5, align 8, !tbaa !114
  store i32 75, ptr %9, align 4, !tbaa !50
  store i1 true, ptr %3, align 1
  br label %41

10:                                               ; preds = %2
  %11 = load i32, ptr %4, align 4, !tbaa !50
  %12 = icmp eq i32 %11, 78
  br i1 %12, label %13, label %15

13:                                               ; preds = %10
  %14 = load ptr, ptr %5, align 8, !tbaa !114
  store i32 76, ptr %14, align 4, !tbaa !50
  store i1 true, ptr %3, align 1
  br label %41

15:                                               ; preds = %10
  %16 = load i32, ptr %4, align 4, !tbaa !50
  %17 = icmp eq i32 %16, 116
  br i1 %17, label %18, label %20

18:                                               ; preds = %15
  %19 = load ptr, ptr %5, align 8, !tbaa !114
  store i32 114, ptr %19, align 4, !tbaa !50
  store i1 true, ptr %3, align 1
  br label %41

20:                                               ; preds = %15
  %21 = load i32, ptr %4, align 4, !tbaa !50
  %22 = icmp eq i32 %21, 115
  br i1 %22, label %23, label %25

23:                                               ; preds = %20
  %24 = load ptr, ptr %5, align 8, !tbaa !114
  store i32 113, ptr %24, align 4, !tbaa !50
  store i1 true, ptr %3, align 1
  br label %41

25:                                               ; preds = %20
  %26 = load i32, ptr %4, align 4, !tbaa !50
  %27 = icmp eq i32 %26, 120
  br i1 %27, label %28, label %30

28:                                               ; preds = %25
  %29 = load ptr, ptr %5, align 8, !tbaa !114
  store i32 118, ptr %29, align 4, !tbaa !50
  store i1 true, ptr %3, align 1
  br label %41

30:                                               ; preds = %25
  %31 = load i32, ptr %4, align 4, !tbaa !50
  %32 = icmp eq i32 %31, 119
  br i1 %32, label %33, label %35

33:                                               ; preds = %30
  %34 = load ptr, ptr %5, align 8, !tbaa !114
  store i32 117, ptr %34, align 4, !tbaa !50
  store i1 true, ptr %3, align 1
  br label %41

35:                                               ; preds = %30
  br label %36

36:                                               ; preds = %35
  br label %37

37:                                               ; preds = %36
  br label %38

38:                                               ; preds = %37
  br label %39

39:                                               ; preds = %38
  br label %40

40:                                               ; preds = %39
  store i1 false, ptr %3, align 1
  br label %41

41:                                               ; preds = %40, %33, %28, %23, %18, %13, %8
  %42 = load i1, ptr %3, align 1
  ret i1 %42
}