; Function Attrs: mustprogress nofree norecurse nosync nounwind willreturn memory(argmem: write) uwtable
define hidden noundef zeroext i1 @_ZN4cvc58internal6theory11quantifiers8TermUtil15isAntisymmetricENS0_4kind6Kind_tERS5_(i32 noundef %0, ptr noundef nonnull writeonly align 4 captures(none) dereferenceable(4) %1) local_unnamed_addr #10 align 2 {
  switch i32 %0, label %8 [
    i32 77, label %.sink.split
    i32 78, label %3
    i32 116, label %4
    i32 115, label %5
    i32 120, label %6
    i32 119, label %7
  ]

3:                                                ; preds = %2
  br label %.sink.split

4:                                                ; preds = %2
  br label %.sink.split

5:                                                ; preds = %2
  br label %.sink.split

6:                                                ; preds = %2
  br label %.sink.split

7:                                                ; preds = %2
  br label %.sink.split

.sink.split:                                      ; preds = %2, %3, %4, %5, %6, %7
  %.sink = phi i32 [ 117, %7 ], [ 118, %6 ], [ 113, %5 ], [ 114, %4 ], [ 76, %3 ], [ 75, %2 ]
  store i32 %.sink, ptr %1, align 4, !tbaa !266
  br label %8

8:                                                ; preds = %.sink.split, %2
  %.0 = phi i1 [ false, %2 ], [ true, %.sink.split ]
  ret i1 %.0
}